target datalayout = "e-m:e-p270:32:32-p271:32:32-p272:64:64-i64:64-i128:128-f80:128-n8:16:32:64-S128"
target triple = "x86_64-pc-linux-gnu"

%struct.Cnf_Dat_t_ = type { ptr, i32, i32, i32, ptr, ptr, ptr, ptr, ptr, ptr }

@.str.32 = private unnamed_addr constant [12 x i8] c"../166b.cnf\00", align 1
@.str.33 = private unnamed_addr constant [13 x i8] c"cnf/%03d.cnf\00", align 1
@.str.34 = private unnamed_addr constant [19 x i8] c"Dumped file \22%s\22.\0A\00", align 1

; Function Attrs: inlinehint nounwind uwtable
define internal i32 @Abc_Var2Lit(i32 noundef %0, i32 noundef %1) #4 {
  %3 = alloca i32, align 4
  %4 = alloca i32, align 4
  store i32 %0, ptr %3, align 4, !tbaa !3
  store i32 %1, ptr %4, align 4, !tbaa !3
  %5 = load i32, ptr %3, align 4, !tbaa !3
  %6 = load i32, ptr %3, align 4, !tbaa !3
  %7 = add nsw i32 %5, %6
  %8 = load i32, ptr %4, align 4, !tbaa !3
  %9 = add nsw i32 %7, %8
  ret i32 %9
}

; Function Attrs: nounwind uwtable
define void @Cnf_Experiment1() #0 {
  %1 = alloca ptr, align 8
  %2 = alloca ptr, align 8
  %3 = alloca i32, align 4
  %4 = alloca ptr, align 8
  %5 = alloca i32, align 4
  %6 = alloca [100 x i8], align 16
  call void @llvm.lifetime.start.p0(i64 8, ptr %1) #12
  call void @llvm.lifetime.start.p0(i64 8, ptr %2) #12
  %7 = call ptr @Cnf_DataReadFromFile(ptr noundef @.str.32)
  store ptr %7, ptr %2, align 8, !tbaa !87
  call void @llvm.lifetime.start.p0(i64 4, ptr %3) #12
  call void @llvm.lifetime.start.p0(i64 8, ptr %4) #12
  %8 = load ptr, ptr %2, align 8, !tbaa !87
  %9 = getelementptr inbounds nuw %struct.Cnf_Dat_t_, ptr %8, i32 0, i32 1
  %10 = load i32, ptr %9, align 8, !tbaa !112
  %11 = sext i32 %10 to i64
  %12 = call noalias ptr @calloc(i64 noundef %11, i64 noundef 4) #15
  store ptr %12, ptr %4, align 8, !tbaa !23
  store i32 0, ptr %3, align 4, !tbaa !3
  br label %13

13:                                               ; preds = %36, %0
  %14 = load i32, ptr %3, align 4, !tbaa !3
  %15 = icmp slt i32 %14, 100
  br i1 %15, label %16, label %39

16:                                               ; preds = %13
  call void @llvm.lifetime.start.p0(i64 4, ptr %5) #12
  %17 = load ptr, ptr %2, align 8, !tbaa !87
  %18 = load ptr, ptr %4, align 8, !tbaa !23
  %19 = call i32 @Cnf_DataBestVar(ptr noundef %17, ptr noundef %18)
  store i32 %19, ptr %5, align 4, !tbaa !3
  call void @llvm.lifetime.start.p0(i64 100, ptr %6) #12
  %20 = getelementptr inbounds [100 x i8], ptr %6, i64 0, i64 0
  %21 = load i32, ptr %3, align 4, !tbaa !3
  %22 = call i32 (ptr, ptr, ...) @sprintf(ptr noundef %20, ptr noundef @.str.33, i32 noundef %21) #12
  %23 = load ptr, ptr %2, align 8, !tbaa !87
  %24 = getelementptr inbounds [100 x i8], ptr %6, i64 0, i64 0
  call void @Cnf_DataWriteIntoFile(ptr noundef %23, ptr noundef %24, i32 noundef 0, ptr noundef null, ptr noundef null)
  %25 = getelementptr inbounds [100 x i8], ptr %6, i64 0, i64 0
  %26 = call i32 (ptr, ...) @printf(ptr noundef @.str.34, ptr noundef %25)
  %27 = load ptr, ptr %2, align 8, !tbaa !87
  store ptr %27, ptr %1, align 8, !tbaa !87
  %28 = load i32, ptr %5, align 4, !tbaa !3
  %29 = call i32 @Abc_Var2Lit(i32 noundef %28, i32 noundef 0)
  %30 = call ptr @Cnf_DataDupCof(ptr noundef %27, i32 noundef %29)
  store ptr %30, ptr %2, align 8, !tbaa !87
  %31 = load ptr, ptr %1, align 8, !tbaa !87
  call void @Cnf_DataFree(ptr noundef %31)
  %32 = load ptr, ptr %4, align 8, !tbaa !23
  %33 = load i32, ptr %5, align 4, !tbaa !3
  %34 = sext i32 %33 to i64
  %35 = getelementptr inbounds i32, ptr %32, i64 %34
  store i32 1, ptr %35, align 4, !tbaa !3
  call void @llvm.lifetime.end.p0(i64 100, ptr %6) #12
  call void @llvm.lifetime.end.p0(i64 4, ptr %5) #12
  br label %36

36:                                               ; preds = %16
  %37 = load i32, ptr %3, align 4, !tbaa !3
  %38 = add nsw i32 %37, 1
  store i32 %38, ptr %3, align 4, !tbaa !3
  br label %13, !llvm.loop !137

39:                                               ; preds = %13
  %40 = load ptr, ptr %2, align 8, !tbaa !87
  call void @Cnf_DataFree(ptr noundef %40)
  %41 = load ptr, ptr %4, align 8, !tbaa !23
  %42 = icmp ne ptr %41, null
  br i1 %42, label %43, label %45

43:                                               ; preds = %39
  %44 = load ptr, ptr %4, align 8, !tbaa !23
  call void @free(ptr noundef %44) #12
  store ptr null, ptr %4, align 8, !tbaa !23
  br label %46

45:                                               ; preds = %39
  br label %46

46:                                               ; preds = %45, %43
  call void @llvm.lifetime.end.p0(i64 8, ptr %4) #12
  call void @llvm.lifetime.end.p0(i64 4, ptr %3) #12
  call void @llvm.lifetime.end.p0(i64 8, ptr %2) #12
  call void @llvm.lifetime.end.p0(i64 8, ptr %1) #12
  ret void
}