; Function Attrs: nounwind uwtable
define void @Cnf_Experiment1() local_unnamed_addr #0 {
  %1 = alloca [100 x i8], align 16
  %2 = tail call ptr @Cnf_DataReadFromFile(ptr noundef nonnull @.str.32)
  %3 = getelementptr inbounds nuw i8, ptr %2, i64 8
  %4 = load i32, ptr %3, align 8, !tbaa !95
  %5 = sext i32 %4 to i64
  %6 = tail call noalias ptr @calloc(i64 noundef %5, i64 noundef 4) #26
  br label %7

7:                                                ; preds = %0, %7
  %.017 = phi ptr [ %2, %0 ], [ %12, %7 ]
  %.01416 = phi i32 [ 0, %0 ], [ %15, %7 ]
  %8 = call i32 @Cnf_DataBestVar(ptr noundef %.017, ptr noundef %6)
  call void @llvm.lifetime.start.p0(i64 100, ptr nonnull %1) #22
  %9 = call i32 (ptr, ptr, ...) @sprintf(ptr noundef nonnull dereferenceable(1) %1, ptr noundef nonnull dereferenceable(1) @.str.33, i32 noundef %.01416) #22
  call void @Cnf_DataWriteIntoFile(ptr noundef %.017, ptr noundef nonnull %1, i32 noundef 0, ptr noundef null, ptr noundef null) #22
  %10 = call i32 (ptr, ...) @printf(ptr noundef nonnull dereferenceable(1) @.str.34, ptr noundef nonnull %1)
  %11 = shl nsw i32 %8, 1
  %12 = call ptr @Cnf_DataDupCof(ptr noundef %.017, i32 noundef %11) #22
  call void @Cnf_DataFree(ptr noundef %.017) #22
  %13 = sext i32 %8 to i64
  %14 = getelementptr inbounds i32, ptr %6, i64 %13
  store i32 1, ptr %14, align 4, !tbaa !14
  call void @llvm.lifetime.end.p0(i64 100, ptr nonnull %1) #22
  %15 = add nuw nsw i32 %.01416, 1
  %exitcond.not = icmp eq i32 %15, 100
  br i1 %exitcond.not, label %16, label %7, !llvm.loop !121

16:                                               ; preds = %7
  call void @Cnf_DataFree(ptr noundef %12) #22
  call void @free(ptr noundef nonnull %6) #22
  ret void
}